target datalayout = "e-m:e-p270:32:32-p271:32:32-p272:64:64-i64:64-i128:128-f80:128-n8:16:32:64-S128"
target triple = "x86_64-pc-linux-gnu"

%struct.SDL_VideoDevice = type { ptr, ptr, ptr, ptr, ptr, ptr, ptr, ptr, ptr, ptr, ptr, ptr, ptr, ptr, ptr, ptr, ptr, ptr, ptr, ptr, ptr, ptr, ptr, ptr, ptr, ptr, ptr, ptr, ptr, ptr, ptr, ptr, ptr, ptr, ptr, ptr, ptr, ptr, ptr, ptr, ptr, ptr, ptr, ptr, ptr, ptr, ptr, ptr, ptr, ptr, ptr, ptr, ptr, ptr, ptr, ptr, ptr, ptr, ptr, ptr, ptr, ptr, ptr, ptr, ptr, ptr, ptr, ptr, ptr, ptr, ptr, ptr, ptr, ptr, ptr, ptr, ptr, ptr, ptr, ptr, ptr, ptr, ptr, ptr, ptr, ptr, ptr, ptr, ptr, ptr, ptr, ptr, ptr, ptr, ptr, ptr, ptr, i64, i8, i8, i8, ptr, i32, ptr, %struct.SDL_Rect, ptr, ptr, i32, ptr, ptr, ptr, ptr, i64, ptr, i8, i32, i32, %struct.anon, ptr, ptr, ptr, ptr, ptr, ptr, %struct.SDL_AtomicInt, %struct.SDL_AtomicInt, i8, %struct.anon.0, ptr, ptr, ptr, ptr, ptr }
%struct.SDL_Rect = type { i32, i32, i32, i32 }
%struct.anon = type { i32, i32, i32, i32, i32, i32, i32, i32, i32, i32, i32, i32, i32, i32, i32, i32, i32, i32, i32, i32, i32, i32, i32, i32, i32, i32, i32, i32, i32, [256 x i8], ptr }
%struct.SDL_AtomicInt = type { i32 }
%struct.anon.0 = type { ptr, ptr, i32, [256 x i8], ptr }
%struct.SDL_VideoData = type { ptr, ptr, i32, ptr, i64, i32, ptr, i32, i64, i64, %struct.X11_ClipboardData, %struct.X11_ClipboardData, ptr, i64, %struct.X11_SettingsData, i8, %struct.anon.1, [256 x i32], i8, i8, i8, i64, i8, %struct.SDL_Point, i32, ptr, i32, i8, i32, %struct.anon.2, i8, i64, ptr, ptr, i8, i8, i8 }
%struct.X11_ClipboardData = type { ptr, ptr, ptr, i64, i32 }
%struct.X11_SettingsData = type { ptr }
%struct.anon.1 = type { i64, i64, i64, i64, i64, i64, i64, i64, i64, i64, i64, i64, i64, i64, i64, i64, i64, i64, i64, i64, i64, i64, i64, i64, i64, i64, i64, i64, i64, i64, i64, i64, i64, i64, i64, i64, i64, i64, i64, i64, i64, i64, i64, i64, i64, i64, i64, i64, i64, i64, i64, i64, i64 }
%struct.SDL_Point = type { i32, i32 }
%struct.anon.2 = type { ptr, i32, i32, i32, i16, i32, i32 }
%struct.XWindowAttributes = type { i32, i32, i32, i32, i32, i32, ptr, i64, i32, i32, i32, i32, i64, i64, i32, i64, i32, i32, i64, i64, i64, i32, ptr }
%struct.SDL_Window = type { i32, ptr, ptr, i32, i32, i32, i32, i32, i32, i32, i32, float, float, i32, i32, i64, i64, float, i8, i8, i32, i32, %struct.SDL_Rect, %struct.SDL_Rect, %struct.SDL_Rect, i8, i8, i8, %struct.SDL_DisplayMode, %struct.SDL_DisplayMode, %struct.SDL_HDROutputProperties, float, ptr, i8, i8, i8, i8, i8, i8, i8, i8, i8, i32, i32, i32, i32, %struct.SDL_Rect, i32, i8, %struct.SDL_Rect, i32, %struct.SDL_Rect, ptr, ptr, i32, float, i32, i32, ptr, ptr, ptr, ptr, ptr, ptr, ptr, ptr, ptr }
%struct.SDL_DisplayMode = type { i32, i32, i32, i32, float, float, i32, i32, ptr }
%struct.SDL_HDROutputProperties = type { float, float }
%struct.SDL_DisplayData = type { i32, ptr, i32, i32, i32, i32, i64, i8, i64, [16 x i8] }
%struct.anon.4 = type { ptr, ptr, i32, i32, i32, i32, ptr, i64, i64, i64, i32, ptr, i32, i32, i32, i32, i32, ptr, i32, i32, ptr, ptr, i32, i64, i64, ptr, ptr, ptr, ptr, i32, ptr, ptr, ptr, i32, i32, ptr, i64, i64, i32, i32, ptr, ptr, i32, ptr }
%struct.Screen = type { ptr, ptr, i64, i32, i32, i32, i32, i32, ptr, i32, ptr, ptr, i64, i64, i64, i32, i32, i32, i32, i64 }
%struct.SDL_WindowData = type { ptr, i64, ptr, i64, i8, %struct.XShmSegmentInfo, ptr, ptr, ptr, i8, i32, i32, i32, i32, i8, i8, i8, i64, i32, i64, i8, %struct.SDL_Point, %struct.XConfigureEvent, %struct.XConfigureEvent, ptr, i64, i64, i64, i8, i64, ptr, i8, [4 x i64], %struct.SDL_Rect, i64, %struct._XSyncValue, i8, %struct.SDL_Rect, %struct.SDL_DisplayMode, i32, i32, i8, i8, i8, i8, i8, i8, i8, i8, i32, %struct.XPoint, ptr, ptr, i32, i32, i8 }
%struct.XShmSegmentInfo = type { i64, i32, ptr, i32 }
%struct.XConfigureEvent = type { i32, i64, i32, ptr, i64, i64, i32, i32, i32, i32, i32, i64, i32 }
%struct._XSyncValue = type { i32, i32 }
%struct.XPoint = type { i16, i16 }
%union._XEvent = type { [24 x i64] }
%struct.XAnyEvent = type { i32, i64, i32, ptr, i64 }
%struct.XClientMessageEvent = type { i32, i64, i32, ptr, i64, i64, i32, %union.anon }
%union.anon = type { [5 x i64] }

@X11_XGetWindowAttributes = external global ptr, align 8
@X11_XFlush = external global ptr, align 8
@X11_XSendEvent = external global ptr, align 8
@.str.46 = private unnamed_addr constant [15 x i8] c"Invalid window\00", align 1
@.str.47 = private unnamed_addr constant [27 x i8] c"Invalid window driver data\00", align 1

; Function Attrs: nounwind uwtable
define internal zeroext i1 @X11_IsWindowMapped(ptr noundef %0, ptr noundef %1) #0 {
  %3 = alloca i1, align 1
  %4 = alloca ptr, align 8
  %5 = alloca ptr, align 8
  %6 = alloca ptr, align 8
  %7 = alloca ptr, align 8
  %8 = alloca %struct.XWindowAttributes, align 8
  %9 = alloca i32, align 4
  store ptr %0, ptr %4, align 8
  store ptr %1, ptr %5, align 8
  call void @llvm.lifetime.start.p0(i64 8, ptr %6) #7
  %10 = load ptr, ptr %5, align 8
  %11 = getelementptr inbounds nuw %struct.SDL_Window, ptr %10, i32 0, i32 59
  %12 = load ptr, ptr %11, align 8
  store ptr %12, ptr %6, align 8
  call void @llvm.lifetime.start.p0(i64 8, ptr %7) #7
  %13 = load ptr, ptr %4, align 8
  %14 = getelementptr inbounds nuw %struct.SDL_VideoDevice, ptr %13, i32 0, i32 128
  %15 = load ptr, ptr %14, align 8
  store ptr %15, ptr %7, align 8
  call void @llvm.lifetime.start.p0(i64 136, ptr %8) #7
  %16 = load ptr, ptr @X11_XGetWindowAttributes, align 8
  %17 = load ptr, ptr %7, align 8
  %18 = getelementptr inbounds nuw %struct.SDL_VideoData, ptr %17, i32 0, i32 0
  %19 = load ptr, ptr %18, align 8
  %20 = load ptr, ptr %6, align 8
  %21 = getelementptr inbounds nuw %struct.SDL_WindowData, ptr %20, i32 0, i32 1
  %22 = load i64, ptr %21, align 8
  %23 = call i32 %16(ptr noundef %19, i64 noundef %22, ptr noundef %8)
  %24 = getelementptr inbounds nuw %struct.XWindowAttributes, ptr %8, i32 0, i32 17
  %25 = load i32, ptr %24, align 4
  %26 = icmp ne i32 %25, 0
  br i1 %26, label %27, label %28

27:                                               ; preds = %2
  store i1 true, ptr %3, align 1
  store i32 1, ptr %9, align 4
  br label %29

28:                                               ; preds = %2
  store i1 false, ptr %3, align 1
  store i32 1, ptr %9, align 4
  br label %29

29:                                               ; preds = %28, %27
  call void @llvm.lifetime.end.p0(i64 136, ptr %8) #7
  call void @llvm.lifetime.end.p0(i64 8, ptr %7) #7
  call void @llvm.lifetime.end.p0(i64 8, ptr %6) #7
  %30 = load i1, ptr %3, align 1
  ret i1 %30
}

; Function Attrs: nounwind uwtable
define internal zeroext i1 @X11_SetWindowMaximized(ptr noundef %0, ptr noundef %1, i1 noundef zeroext %2) #0 {
  %4 = alloca i1, align 1
  %5 = alloca ptr, align 8
  %6 = alloca ptr, align 8
  %7 = alloca i8, align 1
  %8 = alloca ptr, align 8
  %9 = alloca ptr, align 8
  %10 = alloca ptr, align 8
  %11 = alloca i64, align 8
  %12 = alloca i64, align 8
  %13 = alloca i64, align 8
  %14 = alloca i32, align 4
  %15 = alloca %union._XEvent, align 8
  %16 = alloca i32, align 4
  %17 = alloca %struct.SDL_Rect, align 4
  store ptr %0, ptr %5, align 8
  store ptr %1, ptr %6, align 8
  %18 = zext i1 %2 to i8
  store i8 %18, ptr %7, align 1
  %19 = load ptr, ptr %6, align 8
  %20 = icmp ne ptr %19, null
  br i1 %20, label %23, label %21

21:                                               ; preds = %3
  %22 = call zeroext i1 (ptr, ...) @SDL_SetError_REAL(ptr noundef @.str.46)
  store i1 %22, ptr %4, align 1
  br label %198

23:                                               ; preds = %3
  %24 = load ptr, ptr %6, align 8
  %25 = getelementptr inbounds nuw %struct.SDL_Window, ptr %24, i32 0, i32 59
  %26 = load ptr, ptr %25, align 8
  %27 = icmp ne ptr %26, null
  br i1 %27, label %30, label %28

28:                                               ; preds = %23
  %29 = call zeroext i1 (ptr, ...) @SDL_SetError_REAL(ptr noundef @.str.47)
  store i1 %29, ptr %4, align 1
  br label %198

30:                                               ; preds = %23
  call void @llvm.lifetime.start.p0(i64 8, ptr %8) #7
  %31 = load ptr, ptr %6, align 8
  %32 = getelementptr inbounds nuw %struct.SDL_Window, ptr %31, i32 0, i32 59
  %33 = load ptr, ptr %32, align 8
  store ptr %33, ptr %8, align 8
  call void @llvm.lifetime.start.p0(i64 8, ptr %9) #7
  %34 = load ptr, ptr %6, align 8
  %35 = call ptr @SDL_GetDisplayDriverDataForWindow(ptr noundef %34)
  store ptr %35, ptr %9, align 8
  call void @llvm.lifetime.start.p0(i64 8, ptr %10) #7
  %36 = load ptr, ptr %8, align 8
  %37 = getelementptr inbounds nuw %struct.SDL_WindowData, ptr %36, i32 0, i32 24
  %38 = load ptr, ptr %37, align 8
  %39 = getelementptr inbounds nuw %struct.SDL_VideoData, ptr %38, i32 0, i32 0
  %40 = load ptr, ptr %39, align 8
  store ptr %40, ptr %10, align 8
  call void @llvm.lifetime.start.p0(i64 8, ptr %11) #7
  %41 = load ptr, ptr %8, align 8
  %42 = getelementptr inbounds nuw %struct.SDL_WindowData, ptr %41, i32 0, i32 24
  %43 = load ptr, ptr %42, align 8
  %44 = getelementptr inbounds nuw %struct.SDL_VideoData, ptr %43, i32 0, i32 16
  %45 = getelementptr inbounds nuw %struct.anon.1, ptr %44, i32 0, i32 5
  %46 = load i64, ptr %45, align 8
  store i64 %46, ptr %11, align 8
  call void @llvm.lifetime.start.p0(i64 8, ptr %12) #7
  %47 = load ptr, ptr %8, align 8
  %48 = getelementptr inbounds nuw %struct.SDL_WindowData, ptr %47, i32 0, i32 24
  %49 = load ptr, ptr %48, align 8
  %50 = getelementptr inbounds nuw %struct.SDL_VideoData, ptr %49, i32 0, i32 16
  %51 = getelementptr inbounds nuw %struct.anon.1, ptr %50, i32 0, i32 8
  %52 = load i64, ptr %51, align 8
  store i64 %52, ptr %12, align 8
  call void @llvm.lifetime.start.p0(i64 8, ptr %13) #7
  %53 = load ptr, ptr %8, align 8
  %54 = getelementptr inbounds nuw %struct.SDL_WindowData, ptr %53, i32 0, i32 24
  %55 = load ptr, ptr %54, align 8
  %56 = getelementptr inbounds nuw %struct.SDL_VideoData, ptr %55, i32 0, i32 16
  %57 = getelementptr inbounds nuw %struct.anon.1, ptr %56, i32 0, i32 9
  %58 = load i64, ptr %57, align 8
  store i64 %58, ptr %13, align 8
  %59 = load ptr, ptr %6, align 8
  %60 = getelementptr inbounds nuw %struct.SDL_Window, ptr %59, i32 0, i32 15
  %61 = load i64, ptr %60, align 8
  %62 = and i64 %61, 1
  %63 = icmp ne i64 %62, 0
  br i1 %63, label %64, label %65

64:                                               ; preds = %30
  store i1 true, ptr %4, align 1
  store i32 1, ptr %14, align 4
  br label %197

65:                                               ; preds = %30
  %66 = load ptr, ptr %5, align 8
  %67 = load ptr, ptr %6, align 8
  %68 = call zeroext i1 @X11_IsWindowMapped(ptr noundef %66, ptr noundef %67)
  br i1 %68, label %69, label %185

69:                                               ; preds = %65
  call void @llvm.lifetime.start.p0(i64 192, ptr %15) #7
  call void @llvm.memset.p0.i64(ptr align 8 %15, i8 0, i64 192, i1 false)
  %70 = getelementptr inbounds nuw %struct.XAnyEvent, ptr %15, i32 0, i32 0
  store i32 33, ptr %70, align 8
  %71 = load i64, ptr %11, align 8
  %72 = getelementptr inbounds nuw %struct.XClientMessageEvent, ptr %15, i32 0, i32 5
  store i64 %71, ptr %72, align 8
  %73 = getelementptr inbounds nuw %struct.XClientMessageEvent, ptr %15, i32 0, i32 6
  store i32 32, ptr %73, align 8
  %74 = load ptr, ptr %8, align 8
  %75 = getelementptr inbounds nuw %struct.SDL_WindowData, ptr %74, i32 0, i32 1
  %76 = load i64, ptr %75, align 8
  %77 = getelementptr inbounds nuw %struct.XClientMessageEvent, ptr %15, i32 0, i32 4
  store i64 %76, ptr %77, align 8
  %78 = load i8, ptr %7, align 1, !range !5, !noundef !6
  %79 = trunc i8 %78 to i1
  %80 = select i1 %79, i64 1, i64 0
  %81 = getelementptr inbounds nuw %struct.XClientMessageEvent, ptr %15, i32 0, i32 7
  %82 = getelementptr inbounds [5 x i64], ptr %81, i64 0, i64 0
  store i64 %80, ptr %82, align 8
  %83 = load i64, ptr %12, align 8
  %84 = getelementptr inbounds nuw %struct.XClientMessageEvent, ptr %15, i32 0, i32 7
  %85 = getelementptr inbounds [5 x i64], ptr %84, i64 0, i64 1
  store i64 %83, ptr %85, align 8
  %86 = load i64, ptr %13, align 8
  %87 = getelementptr inbounds nuw %struct.XClientMessageEvent, ptr %15, i32 0, i32 7
  %88 = getelementptr inbounds [5 x i64], ptr %87, i64 0, i64 2
  store i64 %86, ptr %88, align 8
  %89 = getelementptr inbounds nuw %struct.XClientMessageEvent, ptr %15, i32 0, i32 7
  %90 = getelementptr inbounds [5 x i64], ptr %89, i64 0, i64 3
  store i64 0, ptr %90, align 8
  %91 = load i8, ptr %7, align 1, !range !5, !noundef !6
  %92 = trunc i8 %91 to i1
  br i1 %92, label %93, label %142

93:                                               ; preds = %69
  call void @llvm.lifetime.start.p0(i64 4, ptr %16) #7
  %94 = load ptr, ptr %6, align 8
  %95 = call i32 @SDL_GetDisplayForWindow_REAL(ptr noundef %94)
  store i32 %95, ptr %16, align 4
  call void @llvm.lifetime.start.p0(i64 16, ptr %17) #7
  call void @llvm.memset.p0.i64(ptr align 4 %17, i8 0, i64 16, i1 false)
  %96 = load i32, ptr %16, align 4
  %97 = call zeroext i1 @SDL_GetDisplayUsableBounds_REAL(i32 noundef %96, ptr noundef %17)
  %98 = getelementptr inbounds nuw %struct.SDL_Rect, ptr %17, i32 0, i32 0
  %99 = load i32, ptr %98, align 4
  %100 = load ptr, ptr %8, align 8
  %101 = getelementptr inbounds nuw %struct.SDL_WindowData, ptr %100, i32 0, i32 10
  %102 = load i32, ptr %101, align 4
  %103 = add nsw i32 %99, %102
  %104 = load ptr, ptr %8, align 8
  %105 = getelementptr inbounds nuw %struct.SDL_WindowData, ptr %104, i32 0, i32 37
  %106 = getelementptr inbounds nuw %struct.SDL_Rect, ptr %105, i32 0, i32 0
  store i32 %103, ptr %106, align 4
  %107 = getelementptr inbounds nuw %struct.SDL_Rect, ptr %17, i32 0, i32 1
  %108 = load i32, ptr %107, align 4
  %109 = load ptr, ptr %8, align 8
  %110 = getelementptr inbounds nuw %struct.SDL_WindowData, ptr %109, i32 0, i32 12
  %111 = load i32, ptr %110, align 4
  %112 = add nsw i32 %108, %111
  %113 = load ptr, ptr %8, align 8
  %114 = getelementptr inbounds nuw %struct.SDL_WindowData, ptr %113, i32 0, i32 37
  %115 = getelementptr inbounds nuw %struct.SDL_Rect, ptr %114, i32 0, i32 1
  store i32 %112, ptr %115, align 4
  %116 = getelementptr inbounds nuw %struct.SDL_Rect, ptr %17, i32 0, i32 2
  %117 = load i32, ptr %116, align 4
  %118 = load ptr, ptr %8, align 8
  %119 = getelementptr inbounds nuw %struct.SDL_WindowData, ptr %118, i32 0, i32 10
  %120 = load i32, ptr %119, align 4
  %121 = load ptr, ptr %8, align 8
  %122 = getelementptr inbounds nuw %struct.SDL_WindowData, ptr %121, i32 0, i32 11
  %123 = load i32, ptr %122, align 8
  %124 = add nsw i32 %120, %123
  %125 = sub nsw i32 %117, %124
  %126 = load ptr, ptr %8, align 8
  %127 = getelementptr inbounds nuw %struct.SDL_WindowData, ptr %126, i32 0, i32 37
  %128 = getelementptr inbounds nuw %struct.SDL_Rect, ptr %127, i32 0, i32 2
  store i32 %125, ptr %128, align 4
  %129 = getelementptr inbounds nuw %struct.SDL_Rect, ptr %17, i32 0, i32 3
  %130 = load i32, ptr %129, align 4
  %131 = load ptr, ptr %8, align 8
  %132 = getelementptr inbounds nuw %struct.SDL_WindowData, ptr %131, i32 0, i32 12
  %133 = load i32, ptr %132, align 4
  %134 = load ptr, ptr %8, align 8
  %135 = getelementptr inbounds nuw %struct.SDL_WindowData, ptr %134, i32 0, i32 13
  %136 = load i32, ptr %135, align 8
  %137 = add nsw i32 %133, %136
  %138 = sub nsw i32 %130, %137
  %139 = load ptr, ptr %8, align 8
  %140 = getelementptr inbounds nuw %struct.SDL_WindowData, ptr %139, i32 0, i32 37
  %141 = getelementptr inbounds nuw %struct.SDL_Rect, ptr %140, i32 0, i32 3
  store i32 %138, ptr %141, align 4
  call void @llvm.lifetime.end.p0(i64 16, ptr %17) #7
  call void @llvm.lifetime.end.p0(i64 4, ptr %16) #7
  br label %171

142:                                              ; preds = %69
  %143 = load ptr, ptr %6, align 8
  %144 = getelementptr inbounds nuw %struct.SDL_Window, ptr %143, i32 0, i32 23
  %145 = getelementptr inbounds nuw %struct.SDL_Rect, ptr %144, i32 0, i32 0
  %146 = load i32, ptr %145, align 8
  %147 = load ptr, ptr %8, align 8
  %148 = getelementptr inbounds nuw %struct.SDL_WindowData, ptr %147, i32 0, i32 37
  %149 = getelementptr inbounds nuw %struct.SDL_Rect, ptr %148, i32 0, i32 0
  store i32 %146, ptr %149, align 4
  %150 = load ptr, ptr %6, align 8
  %151 = getelementptr inbounds nuw %struct.SDL_Window, ptr %150, i32 0, i32 23
  %152 = getelementptr inbounds nuw %struct.SDL_Rect, ptr %151, i32 0, i32 1
  %153 = load i32, ptr %152, align 4
  %154 = load ptr, ptr %8, align 8
  %155 = getelementptr inbounds nuw %struct.SDL_WindowData, ptr %154, i32 0, i32 37
  %156 = getelementptr inbounds nuw %struct.SDL_Rect, ptr %155, i32 0, i32 1
  store i32 %153, ptr %156, align 4
  %157 = load ptr, ptr %6, align 8
  %158 = getelementptr inbounds nuw %struct.SDL_Window, ptr %157, i32 0, i32 23
  %159 = getelementptr inbounds nuw %struct.SDL_Rect, ptr %158, i32 0, i32 2
  %160 = load i32, ptr %159, align 8
  %161 = load ptr, ptr %8, align 8
  %162 = getelementptr inbounds nuw %struct.SDL_WindowData, ptr %161, i32 0, i32 37
  %163 = getelementptr inbounds nuw %struct.SDL_Rect, ptr %162, i32 0, i32 2
  store i32 %160, ptr %163, align 4
  %164 = load ptr, ptr %6, align 8
  %165 = getelementptr inbounds nuw %struct.SDL_Window, ptr %164, i32 0, i32 23
  %166 = getelementptr inbounds nuw %struct.SDL_Rect, ptr %165, i32 0, i32 3
  %167 = load i32, ptr %166, align 4
  %168 = load ptr, ptr %8, align 8
  %169 = getelementptr inbounds nuw %struct.SDL_WindowData, ptr %168, i32 0, i32 37
  %170 = getelementptr inbounds nuw %struct.SDL_Rect, ptr %169, i32 0, i32 3
  store i32 %167, ptr %170, align 4
  br label %171

171:                                              ; preds = %142, %93
  %172 = load ptr, ptr @X11_XSendEvent, align 8
  %173 = load ptr, ptr %10, align 8
  %174 = load ptr, ptr %10, align 8
  %175 = getelementptr inbounds nuw %struct.anon.4, ptr %174, i32 0, i32 35
  %176 = load ptr, ptr %175, align 8
  %177 = load ptr, ptr %9, align 8
  %178 = getelementptr inbounds nuw %struct.SDL_DisplayData, ptr %177, i32 0, i32 0
  %179 = load i32, ptr %178, align 8
  %180 = sext i32 %179 to i64
  %181 = getelementptr inbounds %struct.Screen, ptr %176, i64 %180
  %182 = getelementptr inbounds nuw %struct.Screen, ptr %181, i32 0, i32 2
  %183 = load i64, ptr %182, align 8
  %184 = call i32 %172(ptr noundef %173, i64 noundef %183, i32 noundef 0, i64 noundef 1572864, ptr noundef %15)
  call void @llvm.lifetime.end.p0(i64 192, ptr %15) #7
  br label %193

185:                                              ; preds = %65
  %186 = load ptr, ptr %5, align 8
  %187 = load ptr, ptr %8, align 8
  %188 = getelementptr inbounds nuw %struct.SDL_WindowData, ptr %187, i32 0, i32 1
  %189 = load i64, ptr %188, align 8
  %190 = load ptr, ptr %6, align 8
  %191 = getelementptr inbounds nuw %struct.SDL_Window, ptr %190, i32 0, i32 15
  %192 = load i64, ptr %191, align 8
  call void @X11_SetNetWMState(ptr noundef %186, i64 noundef %189, i64 noundef %192)
  br label %193

193:                                              ; preds = %185, %171
  %194 = load ptr, ptr @X11_XFlush, align 8
  %195 = load ptr, ptr %10, align 8
  %196 = call i32 %194(ptr noundef %195)
  store i1 true, ptr %4, align 1
  store i32 1, ptr %14, align 4
  br label %197

197:                                              ; preds = %193, %64
  call void @llvm.lifetime.end.p0(i64 8, ptr %13) #7
  call void @llvm.lifetime.end.p0(i64 8, ptr %12) #7
  call void @llvm.lifetime.end.p0(i64 8, ptr %11) #7
  call void @llvm.lifetime.end.p0(i64 8, ptr %10) #7
  call void @llvm.lifetime.end.p0(i64 8, ptr %9) #7
  call void @llvm.lifetime.end.p0(i64 8, ptr %8) #7
  br label %198

198:                                              ; preds = %197, %28, %21
  %199 = load i1, ptr %4, align 1
  ret i1 %199
}