; Function Attrs: nounwind uwtable
define internal fastcc void @X11_SetWindowMaximized(ptr noundef readonly captures(none) %0, ptr noundef %1, i1 noundef zeroext %2) unnamed_addr #0 {
  %4 = alloca %struct.XWindowAttributes, align 8
  %5 = alloca %union._XEvent, align 8
  %6 = alloca %struct.SDL_Rect, align 4
  %.not = icmp eq ptr %1, null
  br i1 %.not, label %7, label %9

7:                                                ; preds = %3
  %8 = tail call zeroext i1 (ptr, ...) @SDL_SetError_REAL(ptr noundef nonnull @.str.46) #12
  br label %101

9:                                                ; preds = %3
  %10 = getelementptr inbounds nuw i8, ptr %1, i64 392
  %11 = load ptr, ptr %10, align 8
  %.not46 = icmp eq ptr %11, null
  br i1 %.not46, label %12, label %14

12:                                               ; preds = %9
  %13 = tail call zeroext i1 (ptr, ...) @SDL_SetError_REAL(ptr noundef nonnull @.str.47) #12
  br label %101

14:                                               ; preds = %9
  %15 = tail call ptr @SDL_GetDisplayDriverDataForWindow(ptr noundef nonnull %1) #12
  %16 = getelementptr inbounds nuw i8, ptr %11, i64 336
  %17 = load ptr, ptr %16, align 8
  %18 = load ptr, ptr %17, align 8
  %19 = getelementptr inbounds nuw i8, ptr %17, i64 232
  %20 = load i64, ptr %19, align 8
  %21 = getelementptr inbounds nuw i8, ptr %17, i64 256
  %22 = load i64, ptr %21, align 8
  %23 = getelementptr inbounds nuw i8, ptr %17, i64 264
  %24 = load i64, ptr %23, align 8
  %25 = getelementptr inbounds nuw i8, ptr %1, i64 72
  %26 = load i64, ptr %25, align 8
  %27 = and i64 %26, 1
  %.not47 = icmp eq i64 %27, 0
  br i1 %.not47, label %28, label %101

28:                                               ; preds = %14
  %29 = getelementptr i8, ptr %0, i64 1656
  %.val = load ptr, ptr %29, align 8
  %.val48 = load ptr, ptr %10, align 8
  %.val.val = load ptr, ptr %.val, align 8
  %30 = getelementptr i8, ptr %.val48, i64 8
  %.val48.val = load i64, ptr %30, align 8
  call void @llvm.lifetime.start.p0(i64 136, ptr nonnull %4) #12
  %31 = load ptr, ptr @X11_XGetWindowAttributes, align 8
  %32 = call i32 %31(ptr noundef %.val.val, i64 noundef %.val48.val, ptr noundef nonnull %4) #12
  %33 = getelementptr inbounds nuw i8, ptr %4, i64 92
  %34 = load i32, ptr %33, align 4
  %.not.i.not = icmp eq i32 %34, 0
  call void @llvm.lifetime.end.p0(i64 136, ptr nonnull %4) #12
  br i1 %.not.i.not, label %94, label %35

35:                                               ; preds = %28
  call void @llvm.lifetime.start.p0(i64 192, ptr nonnull %5) #12
  call void @llvm.memset.p0.i64(ptr noundef nonnull align 8 dereferenceable(192) %5, i8 0, i64 192, i1 false)
  store i32 33, ptr %5, align 8
  %36 = getelementptr inbounds nuw i8, ptr %5, i64 40
  store i64 %20, ptr %36, align 8
  %37 = getelementptr inbounds nuw i8, ptr %5, i64 48
  store i32 32, ptr %37, align 8
  %38 = getelementptr inbounds nuw i8, ptr %11, i64 8
  %39 = load i64, ptr %38, align 8
  %40 = getelementptr inbounds nuw i8, ptr %5, i64 32
  store i64 %39, ptr %40, align 8
  %41 = zext i1 %2 to i64
  %42 = getelementptr inbounds nuw i8, ptr %5, i64 56
  store i64 %41, ptr %42, align 8
  %43 = getelementptr inbounds nuw i8, ptr %5, i64 64
  store i64 %22, ptr %43, align 8
  %44 = getelementptr inbounds nuw i8, ptr %5, i64 72
  store i64 %24, ptr %44, align 8
  br i1 %2, label %45, label %72

45:                                               ; preds = %35
  %46 = call i32 @SDL_GetDisplayForWindow_REAL(ptr noundef nonnull %1) #12
  call void @llvm.lifetime.start.p0(i64 16, ptr nonnull %6) #12
  call void @llvm.memset.p0.i64(ptr noundef nonnull align 4 dereferenceable(16) %6, i8 0, i64 16, i1 false)
  %47 = call zeroext i1 @SDL_GetDisplayUsableBounds_REAL(i32 noundef %46, ptr noundef nonnull %6) #12
  %48 = load i32, ptr %6, align 4
  %49 = getelementptr inbounds nuw i8, ptr %11, i64 100
  %50 = load i32, ptr %49, align 4
  %51 = add nsw i32 %50, %48
  %52 = getelementptr inbounds nuw i8, ptr %11, i64 468
  store i32 %51, ptr %52, align 4
  %53 = getelementptr inbounds nuw i8, ptr %6, i64 4
  %54 = load i32, ptr %53, align 4
  %55 = getelementptr inbounds nuw i8, ptr %11, i64 108
  %56 = load i32, ptr %55, align 4
  %57 = add nsw i32 %56, %54
  %58 = getelementptr inbounds nuw i8, ptr %11, i64 472
  store i32 %57, ptr %58, align 4
  %59 = getelementptr inbounds nuw i8, ptr %6, i64 8
  %60 = load i32, ptr %59, align 4
  %61 = getelementptr inbounds nuw i8, ptr %11, i64 104
  %62 = load i32, ptr %61, align 8
  %63 = add i32 %50, %62
  %64 = sub i32 %60, %63
  %65 = getelementptr inbounds nuw i8, ptr %11, i64 476
  store i32 %64, ptr %65, align 4
  %66 = getelementptr inbounds nuw i8, ptr %6, i64 12
  %67 = load i32, ptr %66, align 4
  %68 = getelementptr inbounds nuw i8, ptr %11, i64 112
  %69 = load i32, ptr %68, align 8
  %70 = add i32 %56, %69
  %71 = sub i32 %67, %70
  call void @llvm.lifetime.end.p0(i64 16, ptr nonnull %6) #12
  br label %84

72:                                               ; preds = %35
  %73 = getelementptr inbounds nuw i8, ptr %1, i64 120
  %74 = load i32, ptr %73, align 8
  %75 = getelementptr inbounds nuw i8, ptr %11, i64 468
  store i32 %74, ptr %75, align 4
  %76 = getelementptr inbounds nuw i8, ptr %1, i64 124
  %77 = load i32, ptr %76, align 4
  %78 = getelementptr inbounds nuw i8, ptr %11, i64 472
  store i32 %77, ptr %78, align 4
  %79 = getelementptr inbounds nuw i8, ptr %1, i64 128
  %80 = load i32, ptr %79, align 8
  %81 = getelementptr inbounds nuw i8, ptr %11, i64 476
  store i32 %80, ptr %81, align 4
  %82 = getelementptr inbounds nuw i8, ptr %1, i64 132
  %83 = load i32, ptr %82, align 4
  br label %84

84:                                               ; preds = %72, %45
  %.sink = phi i32 [ %71, %45 ], [ %83, %72 ]
  %85 = getelementptr inbounds nuw i8, ptr %11, i64 480
  store i32 %.sink, ptr %85, align 4
  %86 = load ptr, ptr @X11_XSendEvent, align 8
  %87 = getelementptr inbounds nuw i8, ptr %18, i64 232
  %88 = load ptr, ptr %87, align 8
  %89 = load i32, ptr %15, align 8
  %90 = sext i32 %89 to i64
  %91 = getelementptr inbounds %struct.Screen, ptr %88, i64 %90, i32 2
  %92 = load i64, ptr %91, align 8
  %93 = call i32 %86(ptr noundef %18, i64 noundef %92, i32 noundef 0, i64 noundef 1572864, ptr noundef nonnull %5) #12
  call void @llvm.lifetime.end.p0(i64 192, ptr nonnull %5) #12
  br label %98

94:                                               ; preds = %28
  %95 = getelementptr inbounds nuw i8, ptr %11, i64 8
  %96 = load i64, ptr %95, align 8
  %97 = load i64, ptr %25, align 8
  call void @X11_SetNetWMState(ptr noundef nonnull %0, i64 noundef %96, i64 noundef %97)
  br label %98

98:                                               ; preds = %94, %84
  %99 = load ptr, ptr @X11_XFlush, align 8
  %100 = call i32 %99(ptr noundef %18) #12
  br label %101

101:                                              ; preds = %98, %14, %12, %7
  ret void
}